	.include "asm/macros.inc"
	.include "global.inc"

	.public _ZTVN10__cxxabiv117__class_type_infoE
	.public _ZTVN10__cxxabiv120__si_class_type_infoE

	.data

.public _ZTI13CViMapVmiFile
_ZTI13CViMapVmiFile: // 0x02173694
    .word _ZTVN10__cxxabiv117__class_type_infoE+8, _ZTS13CViMapVmiFile
	
.public _ZTI13CViMapVmcFile
_ZTI13CViMapVmcFile: // 0x0217369C
    .word _ZTVN10__cxxabiv117__class_type_infoE+8, _ZTS13CViMapVmcFile
	
.public _ZTI13CViMapVmpFile
_ZTI13CViMapVmpFile: // 0x021736A4
    .word _ZTVN10__cxxabiv117__class_type_infoE+8, _ZTS13CViMapVmpFile
	
.public _ZTI10CViMapBack
_ZTI10CViMapBack: // 0x021736AC
    .word _ZTVN10__cxxabiv117__class_type_infoE+8, _ZTS10CViMapBack

.public _ZTS10CViMapBack
_ZTS10CViMapBack: // 0x021736B4
	.asciz "10CViMapBack"
	.align 4

.public _ZTV13CViMapVmcFile
_ZTV13CViMapVmcFile: // 0x021736C4
    .word 0, _ZTI13CViMapVmcFile
    .word _ZN13CViMapVmcFileD0Ev, _ZN13CViMapVmcFileD1Ev

.public _ZTS13CViMapVmcFile
_ZTS13CViMapVmcFile: // 0x021736D4
	.asciz "13CViMapVmcFile"
	.align 4

.public _ZTV13CViMapVmpFile
_ZTV13CViMapVmpFile: // 0x021736E4
    .word 0, _ZTI13CViMapVmpFile
    .word _ZN13CViMapVmpFileD0Ev, _ZN13CViMapVmpFileD1Ev

.public _ZTI13CViMapVmcFile
_ZTS13CViMapVmpFile: // 0x021736F4
	.asciz "13CViMapVmpFile"
	.align 4

.public _ZTV13CViMapVmiFile
_ZTV13CViMapVmiFile: // 0x02173704
    .word 0, _ZTI13CViMapVmiFile
    .word _ZN13CViMapVmiFileD0Ev, _ZN13CViMapVmiFileD1Ev

.public _ZTV10CViMapBack
_ZTV10CViMapBack: // 0x02173714
    .word 0, _ZTI10CViMapBack
    .word _ZN10CViMapBackD0Ev, _ZN10CViMapBackD1Ev

.public _ZTS13CViMapVmiFile
_ZTS13CViMapVmiFile: // 0x02173724
	.asciz "13CViMapVmiFile"
	.align 4